; Function Attrs: mustprogress uwtable
define void @_ZN3gmx21ShellCompletionWriterC2ERKNSt7__cxx1112basic_stringIcSt11char_traitsIcESaIcEEENS_21ShellCompletionFormatE(ptr nocapture noundef nonnull writeonly align 8 dereferenceable(8) %0, ptr noundef nonnull align 8 dereferenceable(32) %1, i32 %2) unnamed_addr #0 align 2 personality ptr @__gxx_personality_v0 {
  %4 = tail call noalias noundef nonnull dereferenceable(40) ptr @_Znwm(i64 noundef 40) #13
  invoke void @_ZNSt7__cxx1112basic_stringIcSt11char_traitsIcESaIcEEC1ERKS4_(ptr noundef nonnull align 8 dereferenceable(32) %4, ptr noundef nonnull align 8 dereferenceable(32) %1)
          to label %5 unwind label %7

5:                                                ; preds = %3
  %6 = getelementptr inbounds i8, ptr %4, i64 32
  store ptr null, ptr %6, align 8
  store ptr %4, ptr %0, align 8
  ret void

7:                                                ; preds = %3
  %8 = landingpad { ptr, i32 }
          cleanup
  tail call void @_ZdlPv(ptr noundef nonnull %4) #14
  resume { ptr, i32 } %8
}